(dp1
S'D53DCC9B-BFAD-E611-9FBE-001EC9D5643C'
p2
I145
sS'5F5BD5ED-7808-E611-9928-001EC9D5643C'
p3
I38
sS'A893576C-16F9-E611-84D2-001EC9D56418'
p4
I26
sS'1AD477FA-537D-E511-B4A4-001EC9D5643C'
p5
I9
sS'F38FFFC2-6F3B-E511-A64E-001EC9D5643C'
p6
I165
sS'516018F1-C2AD-E611-9FBE-001EC9D5643C'
p7
I139
sS'896018F1-C2AD-E611-9FBE-001EC9D5643C'
p8
I58
sS'8C5BDEBC-7908-E611-9928-001EC9D5643C'
p9
I37
sS'0B6E2454-371C-E611-9928-001EC9D5643C'
p10
I212
sS'877802E6-3345-E711-97EC-001EC9D56418'
p11
I114
sS'4B6018F1-C2AD-E611-9FBE-001EC9D5643C'
p12
I148
sS'336018F1-C2AD-E611-9FBE-001EC9D5643C'
p13
I192
sS'43BF0132-CC0A-E511-8098-001EC9D56418'
p14
I1
sS'66CECB9E-35CC-E611-B624-001EC9D56418'
p15
I215
sS'5C3629EC-9776-E711-B07B-001EC9D5643C'
p16
I47
sS'8B240E6D-7FCA-E511-9405-001EC9D56418'
p17
I167
sS'FB3CCC9B-BFAD-E611-9FBE-001EC9D5643C'
p18
I172
sS'B526E7C2-5C3E-E411-988B-001EC9D5643C'
p19
I163
sS'81CDF4F4-9F94-E711-8530-00505688958B'
p20
I70
sS'72887078-7908-E611-9928-001EC9D5643C'
p21
I36
sS'B8F13743-FE32-E611-9447-001EC9D56418'
p22
I83
sS'0BD28148-DFDF-E611-B624-001EC9D56418'
p23
I176
sS'4531011F-F85B-E211-9E89-001EC9D56438'
p24
I135
sS'73D28148-DFDF-E611-B624-001EC9D56418'
p25
I141
sS'A93667C6-B147-E311-8507-001EC9D5643C'
p26
I4
sS'2D6018F1-C2AD-E611-9FBE-001EC9D5643C'
p27
I185
sS'C8FDAC6E-5F62-E711-97EC-001EC9D56418'
p28
I52
sS'8D1293DE-F75B-E211-9E89-001EC9D56438'
p29
I136
sS'46B9015C-8808-E611-9928-001EC9D5643C'
p30
I40
sS'72B1CAF6-A2DC-E511-9840-001EC9D56418'
p31
I12
sS'573ECC9B-BFAD-E611-9FBE-001EC9D5643C'
p32
I60
sS'1C2D7502-5CAF-E711-8547-00505688958B'
p33
I115
sS'952C20F9-64B1-E611-9FBE-001EC9D5643C'
p34
I98
sS'17D28148-DFDF-E611-B624-001EC9D56418'
p35
I175
sS'4D6018F1-C2AD-E611-9FBE-001EC9D5643C'
p36
I150
sS'5132A509-A094-E711-8530-00505688958B'
p37
I71
sS'553ECC9B-BFAD-E611-9FBE-001EC9D5643C'
p38
I68
sS'296018F1-C2AD-E611-9FBE-001EC9D5643C'
p39
I182
sS'B94A67F6-6498-E711-8530-00505688958B'
p40
I127
sS'0585C911-A4C2-E611-B887-001EC9D5643C'
p41
I195
sS'5C0E0157-C197-E711-8530-00505688958B'
p42
I18
sS'A29078E2-9F94-E711-8530-00505688958B'
p43
I69
sS'E806378B-4566-E711-97EC-001EC9D56418'
p44
I225
sS'6FFE2FFC-94C4-E711-A992-0050568859FB'
p45
I49
sS'6C216151-D81D-E711-96FE-001EC9D5643C'
p46
I24
sS'276018F1-C2AD-E611-9FBE-001EC9D5643C'
p47
I180
sS'A0B7B63B-6DAF-E711-8547-00505688958B'
p48
I118
sS'796018F1-C2AD-E611-9FBE-001EC9D5643C'
p49
I107
sS'E6CE2E27-122A-E511-84C6-001EC9D56418'
p50
I92
sS'3B6018F1-C2AD-E611-9FBE-001EC9D5643C'
p51
I174
sS'B959FCCF-6CAF-E711-8547-00505688958B'
p52
I117
sS'8661FBB6-9326-E711-96FE-001EC9D5643C'
p53
I101
sS'7021B9D0-64B1-E611-9FBE-001EC9D5643C'
p54
I97
sS'C591F956-8813-E711-96FE-001EC9D5643C'
p55
I44
sS'0DD28148-DFDF-E611-B624-001EC9D56418'
p56
I178
sS'2ED879C7-BDEA-E511-B620-001EC9D5643C'
p57
I80
sS'2AFD3E73-3345-E711-97EC-001EC9D56418'
p58
I113
sS'89E60710-B408-E711-96FE-001EC9D5643C'
p59
I84
sS'F7353C5B-D61D-E711-96FE-001EC9D5643C'
p60
I23
sS'5D3ECC9B-BFAD-E611-9FBE-001EC9D5643C'
p61
I67
sS'093ECC9B-BFAD-E611-9FBE-001EC9D5643C'
p62
I121
sS'5835E2F4-0A16-E711-96FE-001EC9D5643C'
p63
I132
sS'8F6018F1-C2AD-E611-9FBE-001EC9D5643C'
p64
I62
sS'C0B1362A-C378-E511-B4A4-001EC9D5643C'
p65
I230
sS'636018F1-C2AD-E611-9FBE-001EC9D5643C'
p66
I128
sS'8AEB0D29-F373-E511-B4A4-001EC9D5643C'
p67
I209
sS'030E1C6F-6CAF-E711-8547-00505688958B'
p68
I116
sS'EBD28148-DFDF-E611-B624-001EC9D56418'
p69
I56
sS'F2804974-3245-E711-97EC-001EC9D56418'
p70
I112
sS'7A52DFFB-4567-E511-B7CF-001EC9D56418'
p71
I206
sS'71ADFF48-45F8-4B39-B3A8-5DC1C531D3F2'
p72
I123
sS'EFC37AAC-15B1-E611-9632-001EC9D56418'
p73
I173
sS'8B0A30A2-6398-E711-8530-00505688958B'
p74
I126
sS'AECE8386-7E98-E711-8530-00505688958B'
p75
I232
sS'E435277C-002B-E511-82D8-001EC9D5643C'
p76
I103
sS'51917AB1-4566-E711-97EC-001EC9D56418'
p77
I226
sS'779B2444-3915-E711-96FE-001EC9D5643C'
p78
I154
sS'616018F1-C2AD-E611-9FBE-001EC9D5643C'
p79
I130
sS'876018F1-C2AD-E611-9FBE-001EC9D5643C'
p80
I61
sS'8D6018F1-C2AD-E611-9FBE-001EC9D5643C'
p81
I66
sS'DBD18148-DFDF-E611-B624-001EC9D56418'
p82
I170
sS'253ECC9B-BFAD-E611-9FBE-001EC9D5643C'
p83
I105
sS'2F3ECC9B-BFAD-E611-9FBE-001EC9D5643C'
p84
I30
sS'A8632090-8F60-E611-9523-001EC9D5643C'
p85
I15
sS'5A4E0BD8-5C29-E511-84C6-001EC9D56418'
p86
I203
sS'D1AF47AD-A871-E511-B53C-001EC9D5643C'
p87
I79
sS'11D28148-DFDF-E611-B624-001EC9D56418'
p88
I184
sS'313ECC9B-BFAD-E611-9FBE-001EC9D5643C'
p89
I31
sS'E51769DC-4566-E711-97EC-001EC9D56418'
p90
I228
sS'CF5D45F2-785D-E711-97EC-001EC9D56418'
p91
I134
sS'E522EAD5-DA93-E311-8208-001EC9D56418'
p92
I7
sS'15D28148-DFDF-E611-B624-001EC9D56418'
p93
I177
sS'BE6C758E-25F4-E611-84D2-001EC9D56418'
p94
I21
sS'333ECC9B-BFAD-E611-9FBE-001EC9D5643C'
p95
I32
sS'583A3C67-853F-E211-82DD-001EC9D56438'
p96
I57
sS'50B329EC-1DE2-E511-B953-001EC9D56418'
p97
I13
sS'9487D3B2-8713-E711-96FE-001EC9D5643C'
p98
I43
sS'E9D28148-DFDF-E611-B624-001EC9D56418'
p99
I55
sS'34D35BE3-112A-E511-84C6-001EC9D56418'
p100
I93
sS'8D12F018-65D8-E411-9A07-001EC9D56418'
p101
I201
sS'1C80D44F-4F03-E711-96FE-001EC9D5643C'
p102
I88
sS'832FDFD6-AFF2-E611-84D2-001EC9D56418'
p103
I17
sS'976DE653-0779-E711-BBA1-001EC9D5643C'
p104
I72
sS'DF3DCC9B-BFAD-E611-9FBE-001EC9D5643C'
p105
I149
sS'A0E3ADEC-68D5-E511-9840-001EC9D56418'
p106
I11
sS'A33DCC9B-BFAD-E611-9FBE-001EC9D5643C'
p107
I188
sS'4B3B6D6A-93FF-E411-8098-001EC9D56418'
p108
I162
sS'0E6FE41B-8808-E611-9928-001EC9D5643C'
p109
I39
sS'43FD321D-7304-E511-8C7F-001EC9D5643C'
p110
I77
sS'7B6018F1-C2AD-E611-9FBE-001EC9D5643C'
p111
I28
sS'353ECC9B-BFAD-E611-9FBE-001EC9D5643C'
p112
I33
sS'D73DCC9B-BFAD-E611-9FBE-001EC9D5643C'
p113
I146
sS'11343FA0-ABDF-E511-B620-001EC9D5643C'
p114
I169
sS'DD629F04-7304-E511-8C7F-001EC9D5643C'
p115
I78
sS'DDC551EB-97EB-E511-B620-001EC9D5643C'
p116
I210
sS'FD3DCC9B-BFAD-E611-9FBE-001EC9D5643C'
p117
I131
sS'596FD05E-0AAD-E711-B115-00505688958B'
p118
I161
sS'B091AECC-2FA8-E211-9DE0-001EC9D56438'
p119
I3
sS'5AE274CD-9676-E711-B07B-001EC9D5643C'
p120
I46
sS'D312086D-869A-E611-BE92-001EC9D5643C'
p121
I22
sS'3B3ECC9B-BFAD-E611-9FBE-001EC9D5643C'
p122
I34
sS'F10C7B44-9682-E711-8530-00505688958B'
p123
I91
sS'18E6A7C3-5F62-E711-97EC-001EC9D56418'
p124
I53
sS'6B2BDF94-0EF9-E611-84D2-001EC9D56418'
p125
I25
sS'D03CFF9C-4815-E711-96FE-001EC9D5643C'
p126
I196
sS'5F6018F1-C2AD-E611-9FBE-001EC9D5643C'
p127
I129
sS'8CEB3310-63E8-E611-B887-001EC9D5643C'
p128
I231
sS'D284C616-9C13-E711-96FE-001EC9D5643C'
p129
I125
sS'A8A99D30-F75B-E211-9E89-001EC9D56438'
p130
I137
sS'D276F397-9885-E611-BE92-001EC9D5643C'
p131
I220
sS'C78A74B1-07DD-E411-9A07-001EC9D56418'
p132
I202
sS'D082F3A3-CB4D-E211-9E89-001EC9D56438'
p133
I10
sS'206A2D68-CDC5-E611-B624-001EC9D56418'
p134
I51
sS'EC9B9E9E-9326-E711-96FE-001EC9D5643C'
p135
I100
sS'9A2B12C5-4566-E711-97EC-001EC9D56418'
p136
I227
sS'01FE2A0C-2215-E711-96FE-001EC9D5643C'
p137
I157
sS'61765843-CDC5-E611-B624-001EC9D56418'
p138
I50
sS'35168781-8F60-E611-9523-001EC9D5643C'
p139
I14
sS'9D41BD52-F9BE-E711-BC64-00505688958B'
p140
I48
sS'C26518AF-9885-E611-BE92-001EC9D5643C'
p141
I221
sS'0FD28148-DFDF-E611-B624-001EC9D56418'
p142
I179
sS'356018F1-C2AD-E611-9FBE-001EC9D5643C'
p143
I181
sS'9844A740-FD32-E611-9447-001EC9D56418'
p144
I82
sS'75D28148-DFDF-E611-B624-001EC9D56418'
p145
I140
sS'6F9623EC-7204-E511-8C7F-001EC9D5643C'
p146
I76
sS'CF3DCC9B-BFAD-E611-9FBE-001EC9D5643C'
p147
I143
sS'BC92BE33-C197-E711-8530-00505688958B'
p148
I19
sS'50C2C978-7204-E511-8C7F-001EC9D5643C'
p149
I74
sS'B73DCC9B-BFAD-E611-9FBE-001EC9D5643C'
p150
I194
sS'B01B8600-9C13-E711-96FE-001EC9D5643C'
p151
I124
sS'453ECC9B-BFAD-E611-9FBE-001EC9D5643C'
p152
I160
sS'D1D28148-DFDF-E611-B624-001EC9D56418'
p153
I59
sS'91ED5C67-0779-E711-BBA1-001EC9D5643C'
p154
I73
sS'71D0E78B-122A-E511-84C6-001EC9D56418'
p155
I95
sS'994A637F-C2CD-E611-B887-001EC9D5643C'
p156
I35
sS'C18015BA-DA93-E311-8208-001EC9D56418'
p157
I8
sS'2B3ECC9B-BFAD-E611-9FBE-001EC9D5643C'
p158
I109
sS'33DCCE89-BEEA-E511-B620-001EC9D5643C'
p159
I81
sS'2CB38A69-8B14-E711-96FE-001EC9D5643C'
p160
I156
sS'49A66B38-9682-E711-8530-00505688958B'
p161
I90
sS'2F6018F1-C2AD-E611-9FBE-001EC9D5643C'
p162
I190
sS'9605FEF9-A98C-E611-BE92-001EC9D5643C'
p163
I223
sS'26220EC6-16F9-E611-84D2-001EC9D56418'
p164
I27
sS'EEA80383-6E98-E711-8530-00505688958B'
p165
I218
sS'8BF4DE7D-E2CB-E411-989E-001EC9D5643C'
p166
I6
sS'4DEA9986-9326-E711-96FE-001EC9D5643C'
p167
I99
sS'6D228957-122A-E511-84C6-001EC9D56418'
p168
I94
sS'4F6018F1-C2AD-E611-9FBE-001EC9D5643C'
p169
I151
sS'59BCC6D3-7204-E511-8C7F-001EC9D5643C'
p170
I75
sS'95364EB2-E346-E711-97EC-001EC9D56418'
p171
I217
sS'293ECC9B-BFAD-E611-9FBE-001EC9D5643C'
p172
I106
sS'B35EDBAE-F8BE-E711-BC64-00505688958B'
p173
I102
sS'213ECC9B-BFAD-E611-9FBE-001EC9D5643C'
p174
I108
sS'D04F1379-5729-E511-84C6-001EC9D56418'
p175
I204
sS'536018F1-C2AD-E611-9FBE-001EC9D5643C'
p176
I142
sS'376018F1-C2AD-E611-9FBE-001EC9D5643C'
p177
I186
sS'166579E6-9E26-E711-96FE-001EC9D5643C'
p178
I110
sS'396018F1-C2AD-E611-9FBE-001EC9D5643C'
p179
I187
sS'7726CF5A-CC0A-E511-8098-001EC9D56418'
p180
I2
sS'8B5D0C0E-C378-E511-B4A4-001EC9D5643C'
p181
I229
sS'90C25509-AA8C-E611-BE92-001EC9D5643C'
p182
I224
sS'C456AD90-4A15-E711-96FE-001EC9D5643C'
p183
I197
sS'67A58823-AFC9-E511-9405-001EC9D56418'
p184
I166
sS'FF3814A9-9F7D-E711-8530-00505688958B'
p185
I0
sS'316018F1-C2AD-E611-9FBE-001EC9D5643C'
p186
I191
sS'EC9ED18E-2999-E711-8530-00505688958B'
p187
I200
sS'0A741758-AC58-E611-9523-001EC9D5643C'
p188
I213
sS'EB65828D-0449-42C8-9224-42B1C83F1B1E'
p189
I168
sS'E63E86CA-F15B-E211-9E89-001EC9D56438'
p190
I138
sS'19D28148-DFDF-E611-B624-001EC9D56418'
p191
I183
sS'534A36A0-C58B-E611-BE92-001EC9D5643C'
p192
I214
sS'F73DCC9B-BFAD-E611-9FBE-001EC9D5643C'
p193
I133
sS'65C3C56D-897B-E411-9AB7-001EC9D5643C'
p194
I5
sS'CD1F93E5-F273-E511-B4A4-001EC9D5643C'
p195
I208
sS'D7687E5C-D449-E711-97EC-001EC9D56418'
p196
I86
sS'1AD77F71-D449-E711-97EC-001EC9D56418'
p197
I87
sS'2B6018F1-C2AD-E611-9FBE-001EC9D5643C'
p198
I189
sS'BE1E43E2-A98C-E611-BE92-001EC9D5643C'
p199
I222
sS'E73DCC9B-BFAD-E611-9FBE-001EC9D5643C'
p200
I152
sS'460B6880-F8BE-E711-BC64-00505688958B'
p201
I54
sS'053ECC9B-BFAD-E611-9FBE-001EC9D5643C'
p202
I119
sS'776018F1-C2AD-E611-9FBE-001EC9D5643C'
p203
I104
sS'859B8661-F273-E511-B4A4-001EC9D5643C'
p204
I207
sS'AD9787B9-35CC-E611-B624-001EC9D56418'
p205
I216
sS'87BBA675-8478-E511-98DF-001EC9D56418'
p206
I205
sS'496018F1-C2AD-E611-9FBE-001EC9D5643C'
p207
I153
sS'433ECC9B-BFAD-E611-9FBE-001EC9D5643C'
p208
I159
sS'BF3DCC9B-BFAD-E611-9FBE-001EC9D5643C'
p209
I193
sS'D13DCC9B-BFAD-E611-9FBE-001EC9D5643C'
p210
I144
sS'856018F1-C2AD-E611-9FBE-001EC9D5643C'
p211
I65
sS'F8A7FA94-6E98-E711-8530-00505688958B'
p212
I219
sS'57B80236-3D15-E711-96FE-001EC9D5643C'
p213
I155
sS'D93DCC9B-BFAD-E611-9FBE-001EC9D5643C'
p214
I147
sS'7B107089-906F-4969-A4FF-6833EE54BC25'
p215
I122
sS'916018F1-C2AD-E611-9FBE-001EC9D5643C'
p216
I64
sS'67127343-C197-E711-8530-00505688958B'
p217
I20
sS'EFE9999C-9576-E711-B07B-001EC9D5643C'
p218
I45
sS'B3EF35D1-4D15-E711-96FE-001EC9D5643C'
p219
I198
sS'01778D74-9326-E711-96FE-001EC9D5643C'
p220
I96
sS'7DD7E685-DB2F-E711-857E-001EC9D56418'
p221
I89
sS'3A5FF227-B408-E711-96FE-001EC9D5643C'
p222
I85
sS'8B6018F1-C2AD-E611-9FBE-001EC9D5643C'
p223
I63
sS'7D6018F1-C2AD-E611-9FBE-001EC9D5643C'
p224
I29
sS'BFD18148-DFDF-E611-B624-001EC9D56418'
p225
I171
sS'F47C6AD6-C513-E711-96FE-001EC9D5643C'
p226
I42
sS'3D08E7FC-9E26-E711-96FE-001EC9D5643C'
p227
I111
sS'D33DCC9B-BFAD-E611-9FBE-001EC9D5643C'
p228
I158
sS'095A20C2-C513-E711-96FE-001EC9D5643C'
p229
I41
sS'D3BCABA8-1B5F-E611-9523-001EC9D5643C'
p230
I211
sS'F4BE45B2-AFF2-E611-84D2-001EC9D56418'
p231
I16
sS'0C3D6171-4F15-E711-96FE-001EC9D5643C'
p232
I199
sS'8421806C-5D3E-E411-988B-001EC9D5643C'
p233
I164
sS'073ECC9B-BFAD-E611-9FBE-001EC9D5643C'
p234
I120
s.